; Function Attrs: nofree nounwind sspstrong uwtable
define dso_local range(i32 -1, 1) i32 @sys_uname(ptr noundef writeonly captures(none) %buf) local_unnamed_addr #1 {
entry:
  %uts_buf = alloca %struct.utsname, align 1
  %call = call i32 @uname(ptr noundef nonnull %uts_buf) #5
  %cmp = icmp slt i32 %call, 0
  br i1 %cmp, label %return, label %if.end

if.end:                                           ; preds = %entry
  call void @llvm.memcpy.p0.p0.i64(ptr noundef nonnull align 1 dereferenceable(65) %buf, ptr noundef nonnull align 1 dereferenceable(65) %uts_buf, i64 64, i1 false)
  %arrayidx = getelementptr i8, ptr %buf, i64 64
  store i8 0, ptr %arrayidx, align 1
  %nodename = getelementptr inbounds nuw i8, ptr %buf, i64 65
  %nodename7 = getelementptr inbounds nuw i8, ptr %uts_buf, i64 65
  call void @llvm.memcpy.p0.p0.i64(ptr noundef nonnull align 1 dereferenceable(65) %nodename, ptr noundef nonnull align 1 dereferenceable(65) %nodename7, i64 64, i1 false)
  %arrayidx16 = getelementptr i8, ptr %buf, i64 129
  store i8 0, ptr %arrayidx16, align 1
  %release = getelementptr inbounds nuw i8, ptr %buf, i64 130
  %release20 = getelementptr inbounds nuw i8, ptr %uts_buf, i64 130
  call void @llvm.memcpy.p0.p0.i64(ptr noundef nonnull align 1 dereferenceable(65) %release, ptr noundef nonnull align 1 dereferenceable(65) %release20, i64 64, i1 false)
  %arrayidx29 = getelementptr i8, ptr %buf, i64 194
  store i8 0, ptr %arrayidx29, align 1
  %version = getelementptr inbounds nuw i8, ptr %buf, i64 195
  %version33 = getelementptr inbounds nuw i8, ptr %uts_buf, i64 195
  call void @llvm.memcpy.p0.p0.i64(ptr noundef nonnull align 1 dereferenceable(65) %version, ptr noundef nonnull align 1 dereferenceable(65) %version33, i64 64, i1 false)
  %arrayidx42 = getelementptr i8, ptr %buf, i64 259
  store i8 0, ptr %arrayidx42, align 1
  %machine = getelementptr inbounds nuw i8, ptr %buf, i64 260
  %machine46 = getelementptr inbounds nuw i8, ptr %uts_buf, i64 260
  call void @llvm.memcpy.p0.p0.i64(ptr noundef nonnull align 1 dereferenceable(65) %machine, ptr noundef nonnull align 1 dereferenceable(65) %machine46, i64 64, i1 false)
  %arrayidx55 = getelementptr i8, ptr %buf, i64 324
  store i8 0, ptr %arrayidx55, align 1
  %domainname = getelementptr inbounds nuw i8, ptr %buf, i64 325
  %domainname59 = getelementptr inbounds nuw i8, ptr %uts_buf, i64 325
  call void @llvm.memcpy.p0.p0.i64(ptr noundef nonnull align 1 dereferenceable(65) %domainname, ptr noundef nonnull align 1 dereferenceable(65) %domainname59, i64 64, i1 false)
  %arrayidx68 = getelementptr i8, ptr %buf, i64 389
  store i8 0, ptr %arrayidx68, align 1
  br label %return

return:                                           ; preds = %entry, %if.end
  %retval.0 = phi i32 [ 0, %if.end ], [ -1, %entry ]
  ret i32 %retval.0
}